(dp0
S'engine'
p1
S'pdflatex'
p2
sS'packages'
p3
c__builtin__
set
p4
((lp5
S'pdflscape'
p6
aS'fancyhdr'
p7
aS'amsmath'
p8
aS'float'
p9
aS'tabu'
p10
aS'datetime'
p11
aS'paralist'
p12
aS'multicol'
p13
aS'titlesec'
p14
aS'setspace'
p15
aS'booktabs'
p16
aS'color'
p17
aS'apacite'
p18
aS'appendix'
p19
aS'amsfonts'
p20
aS'graphicx'
p21
aS'hyperref'
p22
aS'subfigure'
p23
aS'mcode'
p24
aS'geometry'
p25
aS'listings'
p26
aS'caption'
p27
aS'fixltx2e'
p28
aS'epstopdf'
p29
aS'amssymb'
p30
atp31
Rp32
sS'files_with_guttermarks'
p33
g4
((lp34
S'/Users/dylanmorano/Documents/School/Senior/Senior Design/semester-one-report/latexmain/../modules/introduction.tex'
p35
aS'reportone.tex'
p36
aS'/Users/dylanmorano/Documents/School/Senior/Senior Design/semester-one-report/latexmain/reportone.tex'
p37
aS'/Users/dylanmorano/Documents/School/Senior/Senior Design/semester-one-report/latexmain/./reportone.tex'
p38
aS'/Users/dylanmorano/Documents/School/Senior/Senior Design/semester-one-report/latexmain/../modules/sometheory.tex'
p39
atp40
Rp41
sS'synctex'
p42
I01
s.